; Function Attrs: mustprogress nofree nounwind memory(write, argmem: readwrite) uwtable
define hidden void @_ZN2cv8ximgproc10intrinsics5sqrt_EPfS2_i(ptr noundef writeonly captures(none) %0, ptr noundef readonly captures(none) %1, i32 noundef %2) local_unnamed_addr #8 {
  %4 = icmp sgt i32 %2, 0
  br i1 %4, label %.lr.ph.preheader, label %._crit_edge

.lr.ph.preheader:                                 ; preds = %3
  %wide.trip.count = zext nneg i32 %2 to i64
  br label %.lr.ph

.lr.ph:                                           ; preds = %.lr.ph.preheader, %.lr.ph
  %indvars.iv = phi i64 [ 0, %.lr.ph.preheader ], [ %indvars.iv.next, %.lr.ph ]
  %5 = getelementptr inbounds nuw float, ptr %1, i64 %indvars.iv
  %6 = load float, ptr %5, align 4, !tbaa !51
  %7 = tail call noundef float @sqrtf(float noundef %6) #13, !tbaa !49
  %8 = getelementptr inbounds nuw float, ptr %0, i64 %indvars.iv
  store float %7, ptr %8, align 4, !tbaa !51
  %indvars.iv.next = add nuw nsw i64 %indvars.iv, 1
  %exitcond.not = icmp eq i64 %indvars.iv.next, %wide.trip.count
  br i1 %exitcond.not, label %._crit_edge, label %.lr.ph, !llvm.loop !68

._crit_edge:                                      ; preds = %.lr.ph, %3
  ret void
}